(dp1
S'RENAME'
p2
S'NOTEBOOK_PARAMETERIZER'
p3
sS'VERIFYSTATUS'
p4
(lp5
sS'VERIFYSTDERR'
p6
(lp7
sS'DESCRIPTION'
p8
S'A tool to generate parameterized Jupyter Notebooks.'
p9
sS'CREATOR'
p10
S'/C=DK/ST=NA/L=NA/O=Test Org/OU=NA/CN=Test User/emailAddress=test@migrid.test'
p11
sS'TESTPROCEDURE'
p12
(lp13
sS'ENVIRONMENTVARIABLE'
p14
(lp15
(dp16
S'description'
p17
S'A tool to generate parameterized Jupyter Notebooks.'
p18
sS'name'
p19
S'NOTEBOOK_PARAMETERIZER'
p20
sS'example'
p21
S'/usr/bin/notebook_parameterizer'
p22
sasS'VERIFYSTDOUT'
p23
(lp24
sS'CREATED_TIMESTAMP'
p25
cdatetime
datetime
p26
(S'\x07\xe6\x02\t\r\x1d\x10\x08\xd6\x03'
tRp27
sS'SOFTWARE'
p28
(lp29
(dp30
S'url'
p31
S'https://pypi.org/project/notebook-parameterizer/'
p32
sS'version'
p33
S'0.0.2'
p34
sS'name'
p35
S'notebook_parameterizer'
p36
sS'icon'
p37
S'https://media.githubusercontent.com/media/nteract/logos/master/nteract_papermill/exports/images/png/papermill_logo_wide.png'
p38
sS'description'
p39
S'A tool to generate parameterized Jupyter Notebooks.'
p40
sas.